; Function Attrs: nounwind uwtable
define hidden void @lj_trace_hot(ptr noundef %0, ptr noundef %1) local_unnamed_addr #2 {
  %3 = tail call ptr @__errno_location() #15
  %4 = load i32, ptr %3, align 4, !tbaa !56
  %5 = getelementptr inbounds nuw i8, ptr %0, i64 1660
  %6 = load i32, ptr %5, align 4, !tbaa !56
  %.tr = trunc i32 %6 to i16
  %7 = shl i16 %.tr, 1
  %8 = getelementptr inbounds nuw i8, ptr %0, i64 3112
  %9 = ptrtoint ptr %1 to i64
  %10 = lshr i64 %9, 2
  %11 = and i64 %10, 63
  %12 = getelementptr inbounds nuw [64 x i16], ptr %8, i64 0, i64 %11
  store i16 %7, ptr %12, align 2, !tbaa !103
  %13 = getelementptr inbounds nuw i8, ptr %0, i64 236
  %14 = load i32, ptr %13, align 4, !tbaa !87
  %15 = icmp eq i32 %14, 0
  br i1 %15, label %16, label %lj_trace_ins.exit

16:                                               ; preds = %2
  %17 = getelementptr inbounds i8, ptr %0, i64 -591
  %18 = load i8, ptr %17, align 1, !tbaa !71
  %19 = and i8 %18, 96
  %.not = icmp eq i8 %19, 0
  br i1 %.not, label %20, label %lj_trace_ins.exit

20:                                               ; preds = %16
  %21 = getelementptr inbounds nuw i8, ptr %0, i64 3016
  store i32 0, ptr %21, align 8, !tbaa !94
  %22 = getelementptr inbounds nuw i8, ptr %0, i64 3020
  store i32 0, ptr %22, align 4, !tbaa !95
  store i32 19, ptr %13, align 4, !tbaa !87
  %23 = getelementptr inbounds i8, ptr %1, i64 -4
  %24 = getelementptr inbounds nuw i8, ptr %0, i64 136
  store ptr %23, ptr %24, align 8, !tbaa !83
  %25 = getelementptr inbounds nuw i8, ptr %0, i64 128
  %26 = load ptr, ptr %25, align 8, !tbaa !7
  %27 = getelementptr inbounds nuw i8, ptr %26, i64 32
  %28 = load ptr, ptr %27, align 8, !tbaa !84
  %29 = getelementptr inbounds i8, ptr %28, i64 -16
  %30 = load i64, ptr %29, align 8, !tbaa !4
  %31 = and i64 %30, 140737488355327
  %32 = inttoptr i64 %31 to ptr
  %33 = getelementptr inbounds nuw i8, ptr %0, i64 144
  store ptr %32, ptr %33, align 8, !tbaa !85
  %34 = getelementptr inbounds nuw i8, ptr %32, i64 10
  %35 = load i8, ptr %34, align 2, !tbaa !4
  %36 = icmp eq i8 %35, 0
  br i1 %36, label %37, label %42

37:                                               ; preds = %20
  %38 = getelementptr inbounds nuw i8, ptr %32, i64 32
  %39 = load i64, ptr %38, align 8, !tbaa !4
  %40 = inttoptr i64 %39 to ptr
  %41 = getelementptr inbounds i8, ptr %40, i64 -104
  br label %42

42:                                               ; preds = %37, %20
  %43 = phi ptr [ %41, %37 ], [ null, %20 ]
  %44 = getelementptr inbounds nuw i8, ptr %0, i64 152
  store ptr %43, ptr %44, align 8, !tbaa !86
  %45 = tail call i32 @lj_vm_cpcall(ptr noundef nonnull %26, ptr noundef null, ptr noundef nonnull %0, ptr noundef nonnull @trace_state) #14
  %.not10.i = icmp eq i32 %45, 0
  br i1 %.not10.i, label %lj_trace_ins.exit, label %.lr.ph.i

.lr.ph.i:                                         ; preds = %42, %.lr.ph.i
  store i32 22, ptr %13, align 4, !tbaa !87
  %46 = load ptr, ptr %25, align 8, !tbaa !7
  %47 = tail call i32 @lj_vm_cpcall(ptr noundef %46, ptr noundef null, ptr noundef nonnull %0, ptr noundef nonnull @trace_state) #14
  %.not.i = icmp eq i32 %47, 0
  br i1 %.not.i, label %lj_trace_ins.exit, label %.lr.ph.i, !llvm.loop !88

lj_trace_ins.exit:                                ; preds = %.lr.ph.i, %42, %16, %2
  store i32 %4, ptr %3, align 4, !tbaa !56
  ret void
}